target datalayout = "e-m:e-p270:32:32-p271:32:32-p272:64:64-i64:64-i128:128-f80:128-n8:16:32:64-S128"
target triple = "x86_64-pc-linux-gnu"

%struct.typedefs = type { ptr, ptr, ptr, i32, ptr }
%struct.this_type = type { ptr, i32, ptr, ptr, ptr, ptr }

@types = external global ptr, align 8

; Function Attrs: nounwind uwtable
define dso_local void @remove_typedefs(i32 noundef %0) #0 {
  %2 = alloca i32, align 4
  %3 = alloca ptr, align 8
  %4 = alloca ptr, align 8
  %5 = alloca ptr, align 8
  store i32 %0, ptr %2, align 4
  call void @llvm.lifetime.start.p0(i64 8, ptr %3) #7
  call void @llvm.lifetime.start.p0(i64 8, ptr %4) #7
  call void @llvm.lifetime.start.p0(i64 8, ptr %5) #7
  %6 = load ptr, ptr @types, align 8
  store ptr %6, ptr %3, align 8
  store ptr null, ptr %4, align 8
  br label %7

7:                                                ; preds = %82, %1
  %8 = load ptr, ptr %3, align 8
  %9 = icmp ne ptr %8, null
  br i1 %9, label %10, label %84

10:                                               ; preds = %7
  %11 = load ptr, ptr %3, align 8
  %12 = getelementptr inbounds nuw %struct.typedefs, ptr %11, i32 0, i32 4
  %13 = load ptr, ptr %12, align 8
  store ptr %13, ptr %5, align 8
  %14 = load ptr, ptr %3, align 8
  %15 = getelementptr inbounds nuw %struct.typedefs, ptr %14, i32 0, i32 3
  %16 = load i32, ptr %15, align 8
  %17 = load i32, ptr %2, align 4
  %18 = icmp sge i32 %16, %17
  br i1 %18, label %19, label %79

19:                                               ; preds = %10
  %20 = load ptr, ptr %4, align 8
  %21 = icmp ne ptr %20, null
  br i1 %21, label %22, label %26

22:                                               ; preds = %19
  %23 = load ptr, ptr %5, align 8
  %24 = load ptr, ptr %4, align 8
  %25 = getelementptr inbounds nuw %struct.typedefs, ptr %24, i32 0, i32 4
  store ptr %23, ptr %25, align 8
  br label %28

26:                                               ; preds = %19
  %27 = load ptr, ptr %5, align 8
  store ptr %27, ptr @types, align 8
  br label %28

28:                                               ; preds = %26, %22
  %29 = load ptr, ptr %3, align 8
  %30 = getelementptr inbounds nuw %struct.typedefs, ptr %29, i32 0, i32 1
  %31 = load ptr, ptr %30, align 8
  %32 = getelementptr inbounds nuw %struct.this_type, ptr %31, i32 0, i32 1
  %33 = load i32, ptr %32, align 8
  %34 = icmp eq i32 %33, 22
  br i1 %34, label %42, label %35

35:                                               ; preds = %28
  %36 = load ptr, ptr %3, align 8
  %37 = getelementptr inbounds nuw %struct.typedefs, ptr %36, i32 0, i32 1
  %38 = load ptr, ptr %37, align 8
  %39 = getelementptr inbounds nuw %struct.this_type, ptr %38, i32 0, i32 1
  %40 = load i32, ptr %39, align 8
  %41 = icmp eq i32 %40, 23
  br i1 %41, label %42, label %46

42:                                               ; preds = %35, %28
  %43 = load ptr, ptr %3, align 8
  %44 = getelementptr inbounds nuw %struct.typedefs, ptr %43, i32 0, i32 2
  %45 = load ptr, ptr %44, align 8
  call void @ECPGfree_struct_member(ptr noundef %45)
  br label %46

46:                                               ; preds = %42, %35
  %47 = load ptr, ptr %3, align 8
  %48 = getelementptr inbounds nuw %struct.typedefs, ptr %47, i32 0, i32 1
  %49 = load ptr, ptr %48, align 8
  %50 = getelementptr inbounds nuw %struct.this_type, ptr %49, i32 0, i32 0
  %51 = load ptr, ptr %50, align 8
  call void @free(ptr noundef %51) #7
  %52 = load ptr, ptr %3, align 8
  %53 = getelementptr inbounds nuw %struct.typedefs, ptr %52, i32 0, i32 1
  %54 = load ptr, ptr %53, align 8
  %55 = getelementptr inbounds nuw %struct.this_type, ptr %54, i32 0, i32 2
  %56 = load ptr, ptr %55, align 8
  call void @free(ptr noundef %56) #7
  %57 = load ptr, ptr %3, align 8
  %58 = getelementptr inbounds nuw %struct.typedefs, ptr %57, i32 0, i32 1
  %59 = load ptr, ptr %58, align 8
  %60 = getelementptr inbounds nuw %struct.this_type, ptr %59, i32 0, i32 3
  %61 = load ptr, ptr %60, align 8
  call void @free(ptr noundef %61) #7
  %62 = load ptr, ptr %3, align 8
  %63 = getelementptr inbounds nuw %struct.typedefs, ptr %62, i32 0, i32 1
  %64 = load ptr, ptr %63, align 8
  %65 = getelementptr inbounds nuw %struct.this_type, ptr %64, i32 0, i32 4
  %66 = load ptr, ptr %65, align 8
  call void @free(ptr noundef %66) #7
  %67 = load ptr, ptr %3, align 8
  %68 = getelementptr inbounds nuw %struct.typedefs, ptr %67, i32 0, i32 1
  %69 = load ptr, ptr %68, align 8
  %70 = getelementptr inbounds nuw %struct.this_type, ptr %69, i32 0, i32 5
  %71 = load ptr, ptr %70, align 8
  call void @free(ptr noundef %71) #7
  %72 = load ptr, ptr %3, align 8
  %73 = getelementptr inbounds nuw %struct.typedefs, ptr %72, i32 0, i32 1
  %74 = load ptr, ptr %73, align 8
  call void @free(ptr noundef %74) #7
  %75 = load ptr, ptr %3, align 8
  %76 = getelementptr inbounds nuw %struct.typedefs, ptr %75, i32 0, i32 0
  %77 = load ptr, ptr %76, align 8
  call void @free(ptr noundef %77) #7
  %78 = load ptr, ptr %3, align 8
  call void @free(ptr noundef %78) #7
  br label %81

79:                                               ; preds = %10
  %80 = load ptr, ptr %3, align 8
  store ptr %80, ptr %4, align 8
  br label %81

81:                                               ; preds = %79, %46
  br label %82

82:                                               ; preds = %81
  %83 = load ptr, ptr %5, align 8
  store ptr %83, ptr %3, align 8
  br label %7, !llvm.loop !7

84:                                               ; preds = %7
  call void @llvm.lifetime.end.p0(i64 8, ptr %5) #7
  call void @llvm.lifetime.end.p0(i64 8, ptr %4) #7
  call void @llvm.lifetime.end.p0(i64 8, ptr %3) #7
  ret void
}