; Function Attrs: nounwind uwtable
define dso_local void @remove_typedefs(i32 noundef %0) local_unnamed_addr #0 {
  %2 = load ptr, ptr @types, align 8
  %.not24 = icmp eq ptr %2, null
  br i1 %.not24, label %._crit_edge, label %.lr.ph

.lr.ph:                                           ; preds = %1, %37
  %.026 = phi ptr [ %4, %37 ], [ %2, %1 ]
  %.02025 = phi ptr [ %.1, %37 ], [ null, %1 ]
  %3 = getelementptr inbounds nuw i8, ptr %.026, i64 32
  %4 = load ptr, ptr %3, align 8
  %5 = getelementptr inbounds nuw i8, ptr %.026, i64 24
  %6 = load i32, ptr %5, align 8
  %.not22 = icmp slt i32 %6, %0
  br i1 %.not22, label %37, label %7

7:                                                ; preds = %.lr.ph
  %.not23 = icmp eq ptr %.02025, null
  br i1 %.not23, label %10, label %8

8:                                                ; preds = %7
  %9 = getelementptr inbounds nuw i8, ptr %.02025, i64 32
  store ptr %4, ptr %9, align 8
  br label %11

10:                                               ; preds = %7
  store ptr %4, ptr @types, align 8
  br label %11

11:                                               ; preds = %10, %8
  %12 = getelementptr inbounds nuw i8, ptr %.026, i64 8
  %13 = load ptr, ptr %12, align 8
  %14 = getelementptr inbounds nuw i8, ptr %13, i64 8
  %15 = load i32, ptr %14, align 8
  %16 = and i32 %15, -2
  %switch = icmp eq i32 %16, 22
  br i1 %switch, label %17, label %20

17:                                               ; preds = %11
  %18 = getelementptr inbounds nuw i8, ptr %.026, i64 16
  %19 = load ptr, ptr %18, align 8
  tail call void @ECPGfree_struct_member(ptr noundef %19) #6
  %.pre = load ptr, ptr %12, align 8
  br label %20

20:                                               ; preds = %11, %17
  %21 = phi ptr [ %13, %11 ], [ %.pre, %17 ]
  %22 = load ptr, ptr %21, align 8
  tail call void @free(ptr noundef %22) #6
  %23 = load ptr, ptr %12, align 8
  %24 = getelementptr inbounds nuw i8, ptr %23, i64 16
  %25 = load ptr, ptr %24, align 8
  tail call void @free(ptr noundef %25) #6
  %26 = load ptr, ptr %12, align 8
  %27 = getelementptr inbounds nuw i8, ptr %26, i64 24
  %28 = load ptr, ptr %27, align 8
  tail call void @free(ptr noundef %28) #6
  %29 = load ptr, ptr %12, align 8
  %30 = getelementptr inbounds nuw i8, ptr %29, i64 32
  %31 = load ptr, ptr %30, align 8
  tail call void @free(ptr noundef %31) #6
  %32 = load ptr, ptr %12, align 8
  %33 = getelementptr inbounds nuw i8, ptr %32, i64 40
  %34 = load ptr, ptr %33, align 8
  tail call void @free(ptr noundef %34) #6
  %35 = load ptr, ptr %12, align 8
  tail call void @free(ptr noundef %35) #6
  %36 = load ptr, ptr %.026, align 8
  tail call void @free(ptr noundef %36) #6
  tail call void @free(ptr noundef nonnull %.026) #6
  br label %37

37:                                               ; preds = %.lr.ph, %20
  %.1 = phi ptr [ %.02025, %20 ], [ %.026, %.lr.ph ]
  %.not = icmp eq ptr %4, null
  br i1 %.not, label %._crit_edge, label %.lr.ph, !llvm.loop !7

._crit_edge:                                      ; preds = %37, %1
  ret void
}